; Listing generated by Microsoft (R) Optimizing Compiler Version 16.00.11886.00 

	TITLE	C:\Users\Element18592\Desktop\sentry\sentry\Utils\Utilities.cpp
	.PPC
	.MODEL FLAT
PUBLIC	??_C@_05MPPLIHOF@happy?$AA@			; `string'
PUBLIC	??_C@_03OPLFCACF@sad?$AA@			; `string'
PUBLIC	??_C@_06OCJJHAGB@hammer?$AA@			; `string'
PUBLIC	??_C@_04MFDNODIH@xbox?$AA@			; `string'
PUBLIC	??_C@_04FFKLPPHM@mail?$AA@			; `string'
EXTRN	SetThreadPriority:PROC
EXTRN	ResumeThread:PROC
EXTRN	XSetThreadProcessor:PROC
EXTRN	__imp_ExCreateThread:PROC
EXTRN	XapiThreadStartup:PROC
EXTRN	__imp_XNotifyQueueUI:PROC
;	COMDAT ??_C@_04FFKLPPHM@mail?$AA@
.rdata	SEGMENT
??_C@_04FFKLPPHM@mail?$AA@ DB 'mail', 00H		; `string'
;	COMDAT ??_C@_04MFDNODIH@xbox?$AA@
.rdata	SEGMENT
??_C@_04MFDNODIH@xbox?$AA@ DB 'xbox', 00H		; `string'
;	COMDAT ??_C@_06OCJJHAGB@hammer?$AA@
.rdata	SEGMENT
??_C@_06OCJJHAGB@hammer?$AA@ DB 'hammer', 00H		; `string'
;	COMDAT ??_C@_03OPLFCACF@sad?$AA@
.rdata	SEGMENT
??_C@_03OPLFCACF@sad?$AA@ DB 'sad', 00H			; `string'
;	COMDAT ??_C@_05MPPLIHOF@happy?$AA@
.rdata	SEGMENT
??_C@_05MPPLIHOF@happy?$AA@ DB 'happy', 00H		; `string'
PUBLIC	?ThreadMe@Tools@@YAXP6AKPAX@Z0@Z		; Tools::ThreadMe
EXTRN	ExCreateThread:PROC
;	COMDAT .pdata
; File c:\users\element18592\desktop\sentry\sentry\utils\utilities.cpp
.pdata	SEGMENT
$T103981 DD	?ThreadMe@Tools@@YAXP6AKPAX@Z0@Z
	DD	040001803H
; Function compile flags: /Ogsu

	.code
handle$ = 80						; size = 4
lpThreadId$ = 84					; size = 4

?ThreadMe@Tools@@YAXP6AKPAX@Z0@Z PROC NEAR		; Tools::ThreadMe, COMDAT

; Begin code for function: ?ThreadMe@Tools@@YAXP6AKPAX@Z0@Z

; 8    : 	VOID ThreadMe(LPTHREAD_START_ROUTINE lpStartAddress, LPVOID param = NULL) {

  00000	7d8802a6	 mflr         r12
  00004	9181fff8	 stw          r12,-8(r1)
  00008	9421ffa0	 stwu         r1,-60h(r1)
.endprolog
$M103979:

; 9    : 		HANDLE handle;
; 10   : 		DWORD lpThreadId;
; 11   : 		ExCreateThread(&handle, 0, &lpThreadId, (void*)XapiThreadStartup, lpStartAddress, param, 0x2 | CREATE_SUSPENDED);

  0000c	3d600000	 lis          r11,XapiThreadStartup
  00010	7c671b78	 mr           r7,r3
  00014	39200006	 li           r9,6
  00018	39000000	 li           r8,0
  0001c	38cb0000	 addi         r6,r11,XapiThreadStartup
  00020	38a10054	 addi         r5,r1,lpThreadId$
  00024	38800000	 li           r4,0
  00028	38610050	 addi         r3,r1,handle$
  0002c	48000001	 bl           ExCreateThread

; 12   : 		XSetThreadProcessor(handle, 4);

  00030	38800004	 li           r4,4
  00034	80610050	 lwz          r3,handle$(r1)		; 80 (50h)
  00038	48000001	 bl           XSetThreadProcessor

; 13   : 		SetThreadPriority(handle, THREAD_PRIORITY_ABOVE_NORMAL);

  0003c	38800001	 li           r4,1
  00040	80610050	 lwz          r3,handle$(r1)		; 80 (50h)
  00044	48000001	 bl           SetThreadPriority

; 14   : 		ResumeThread(handle);

  00048	80610050	 lwz          r3,handle$(r1)		; 80 (50h)
  0004c	48000001	 bl           ResumeThread

; 15   : 	}

  00050	38210060	 addi         r1,r1,96		; 60h
  00054	8181fff8	 lwz          r12,-8(r1)
  00058	7d8803a6	 mtlr         r12
  0005c	4e800020	 blr
$M103980:
; End code for function: ?ThreadMe@Tools@@YAXP6AKPAX@Z0@Z
?ThreadMe@Tools@@YAXP6AKPAX@Z0@Z ENDP
							; Tools::ThreadMe
END
